; Function Attrs: mustprogress uwtable
define dso_local void @_ZN3net15ClientHelloInfoC2ERKNS_9IPAddressENS_12QuicWallTimeE(ptr noundef nonnull align 8 dereferenceable(184) %this, ptr noundef nonnull align 8 dereferenceable(24) %in_client_ip, i64 %in_now.coerce) unnamed_addr #0 align 2 personality ptr @__gxx_personality_v0 {
entry:
  tail call void @_ZN3net9IPAddressC1ERKS0_(ptr noundef nonnull align 8 dereferenceable(24) %this, ptr noundef nonnull align 8 dereferenceable(24) %in_client_ip)
  %now = getelementptr inbounds i8, ptr %this, i64 24
  store i64 %in_now.coerce, ptr %now, align 8
  %valid_source_address_token = getelementptr inbounds i8, ptr %this, i64 32
  store i8 0, ptr %valid_source_address_token, align 8
  %sni = getelementptr inbounds i8, ptr %this, i64 40
  invoke void @_ZN4base16BasicStringPieceINSt7__cxx1112basic_stringIcSt11char_traitsIcESaIcEEEEC1Ev(ptr noundef nonnull align 8 dereferenceable(16) %sni)
          to label %invoke.cont unwind label %lpad

invoke.cont:                                      ; preds = %entry
  %client_nonce = getelementptr inbounds i8, ptr %this, i64 56
  invoke void @_ZN4base16BasicStringPieceINSt7__cxx1112basic_stringIcSt11char_traitsIcESaIcEEEEC1Ev(ptr noundef nonnull align 8 dereferenceable(16) %client_nonce)
          to label %invoke.cont2 unwind label %lpad

invoke.cont2:                                     ; preds = %invoke.cont
  %server_nonce = getelementptr inbounds i8, ptr %this, i64 72
  invoke void @_ZN4base16BasicStringPieceINSt7__cxx1112basic_stringIcSt11char_traitsIcESaIcEEEEC1Ev(ptr noundef nonnull align 8 dereferenceable(16) %server_nonce)
          to label %invoke.cont3 unwind label %lpad

invoke.cont3:                                     ; preds = %invoke.cont2
  %user_agent_id = getelementptr inbounds i8, ptr %this, i64 88
  invoke void @_ZN4base16BasicStringPieceINSt7__cxx1112basic_stringIcSt11char_traitsIcESaIcEEEEC1Ev(ptr noundef nonnull align 8 dereferenceable(16) %user_agent_id)
          to label %invoke.cont4 unwind label %lpad

invoke.cont4:                                     ; preds = %invoke.cont3
  %source_address_tokens = getelementptr inbounds i8, ptr %this, i64 104
  invoke void @_ZN3net19SourceAddressTokensC1Ev(ptr noundef nonnull align 8 dereferenceable(56) %source_address_tokens)
          to label %invoke.cont5 unwind label %lpad

invoke.cont5:                                     ; preds = %invoke.cont4
  %reject_reasons = getelementptr inbounds i8, ptr %this, i64 160
  tail call void @llvm.memset.p0.i64(ptr noundef nonnull align 8 dereferenceable(24) %reject_reasons, i8 0, i64 24, i1 false)
  ret void

lpad:                                             ; preds = %invoke.cont4, %invoke.cont3, %invoke.cont2, %invoke.cont, %entry
  %0 = landingpad { ptr, i32 }
          cleanup
  tail call void @_ZN3net9IPAddressD1Ev(ptr noundef nonnull align 8 dereferenceable(24) %this) #20
  resume { ptr, i32 } %0
}